target datalayout = "e-m:e-p270:32:32-p271:32:32-p272:64:64-i64:64-i128:128-f80:128-n8:16:32:64-S128"
target triple = "x86_64-pc-linux-gnu"

%struct.evhttp_uri = type { i32, ptr, ptr, ptr, i32, ptr, ptr, ptr, ptr }

@.str.46 = private unnamed_addr constant [13 x i8] c"%s: strdup()\00", align 1
@__func__.evhttp_uri_set_host = private unnamed_addr constant [20 x i8] c"evhttp_uri_set_host\00", align 1
@.str.165 = private unnamed_addr constant [12 x i8] c"!$&'()*+,;=\00", align 1

; Function Attrs: nounwind uwtable
define internal i32 @regname_ok(ptr noundef %0, ptr noundef %1) #0 {
  %3 = alloca i32, align 4
  %4 = alloca ptr, align 8
  %5 = alloca ptr, align 8
  store ptr %0, ptr %4, align 8
  store ptr %1, ptr %5, align 8
  br label %6

6:                                                ; preds = %54, %2
  %7 = load ptr, ptr %4, align 8
  %8 = icmp ne ptr %7, null
  br i1 %8, label %9, label %13

9:                                                ; preds = %6
  %10 = load ptr, ptr %4, align 8
  %11 = load ptr, ptr %5, align 8
  %12 = icmp ult ptr %10, %11
  br label %13

13:                                               ; preds = %9, %6
  %14 = phi i1 [ false, %6 ], [ %12, %9 ]
  br i1 %14, label %15, label %55

15:                                               ; preds = %13
  %16 = load ptr, ptr %4, align 8
  %17 = load i8, ptr %16, align 1
  %18 = zext i8 %17 to i64
  %19 = getelementptr inbounds nuw [256 x i8], ptr @uri_chars, i64 0, i64 %18
  %20 = load i8, ptr %19, align 1
  %21 = sext i8 %20 to i32
  %22 = icmp ne i32 %21, 0
  br i1 %22, label %29, label %23

23:                                               ; preds = %15
  %24 = load ptr, ptr %4, align 8
  %25 = load i8, ptr %24, align 1
  %26 = sext i8 %25 to i32
  %27 = call ptr @strchr(ptr noundef @.str.165, i32 noundef %26) #12
  %28 = icmp ne ptr %27, null
  br i1 %28, label %29, label %32

29:                                               ; preds = %23, %15
  %30 = load ptr, ptr %4, align 8
  %31 = getelementptr inbounds nuw i8, ptr %30, i32 1
  store ptr %31, ptr %4, align 8
  br label %54

32:                                               ; preds = %23
  %33 = load ptr, ptr %4, align 8
  %34 = load i8, ptr %33, align 1
  %35 = sext i8 %34 to i32
  %36 = icmp eq i32 %35, 37
  br i1 %36, label %37, label %52

37:                                               ; preds = %32
  %38 = load ptr, ptr %4, align 8
  %39 = getelementptr inbounds i8, ptr %38, i64 1
  %40 = load i8, ptr %39, align 1
  %41 = call i32 @EVUTIL_ISXDIGIT_(i8 noundef signext %40)
  %42 = icmp ne i32 %41, 0
  br i1 %42, label %43, label %52

43:                                               ; preds = %37
  %44 = load ptr, ptr %4, align 8
  %45 = getelementptr inbounds i8, ptr %44, i64 2
  %46 = load i8, ptr %45, align 1
  %47 = call i32 @EVUTIL_ISXDIGIT_(i8 noundef signext %46)
  %48 = icmp ne i32 %47, 0
  br i1 %48, label %49, label %52

49:                                               ; preds = %43
  %50 = load ptr, ptr %4, align 8
  %51 = getelementptr inbounds i8, ptr %50, i64 3
  store ptr %51, ptr %4, align 8
  br label %53

52:                                               ; preds = %43, %37, %32
  store i32 0, ptr %3, align 4
  br label %56

53:                                               ; preds = %49
  br label %54

54:                                               ; preds = %53, %29
  br label %6, !llvm.loop !42

55:                                               ; preds = %13
  store i32 1, ptr %3, align 4
  br label %56

56:                                               ; preds = %55, %52
  %57 = load i32, ptr %3, align 4
  ret i32 %57
}

; Function Attrs: nounwind uwtable
define i32 @evhttp_uri_set_host(ptr noundef %0, ptr noundef %1) #0 {
  %3 = alloca i32, align 4
  %4 = alloca ptr, align 8
  %5 = alloca ptr, align 8
  %6 = alloca i64, align 8
  %7 = alloca i32, align 4
  %8 = alloca ptr, align 8
  store ptr %0, ptr %4, align 8
  store ptr %1, ptr %5, align 8
  call void @llvm.lifetime.start.p0(i64 8, ptr %6) #11
  store i64 0, ptr %6, align 8
  %9 = load ptr, ptr %5, align 8
  %10 = icmp ne ptr %9, null
  br i1 %10, label %11, label %38

11:                                               ; preds = %2
  %12 = load ptr, ptr %5, align 8
  %13 = call i64 @strlen(ptr noundef %12) #12
  store i64 %13, ptr %6, align 8
  %14 = load ptr, ptr %5, align 8
  %15 = getelementptr inbounds i8, ptr %14, i64 0
  %16 = load i8, ptr %15, align 1
  %17 = sext i8 %16 to i32
  %18 = icmp eq i32 %17, 91
  br i1 %18, label %19, label %28

19:                                               ; preds = %11
  %20 = load ptr, ptr %5, align 8
  %21 = load ptr, ptr %5, align 8
  %22 = load i64, ptr %6, align 8
  %23 = getelementptr inbounds nuw i8, ptr %21, i64 %22
  %24 = call i32 @bracket_addr_ok(ptr noundef %20, ptr noundef %23)
  %25 = icmp ne i32 %24, 0
  br i1 %25, label %27, label %26

26:                                               ; preds = %19
  store i32 -1, ptr %3, align 4
  store i32 1, ptr %7, align 4
  br label %118

27:                                               ; preds = %19
  br label %37

28:                                               ; preds = %11
  %29 = load ptr, ptr %5, align 8
  %30 = load ptr, ptr %5, align 8
  %31 = load i64, ptr %6, align 8
  %32 = getelementptr inbounds nuw i8, ptr %30, i64 %31
  %33 = call i32 @regname_ok(ptr noundef %29, ptr noundef %32)
  %34 = icmp ne i32 %33, 0
  br i1 %34, label %36, label %35

35:                                               ; preds = %28
  store i32 -1, ptr %3, align 4
  store i32 1, ptr %7, align 4
  br label %118

36:                                               ; preds = %28
  br label %37

37:                                               ; preds = %36, %27
  br label %38

38:                                               ; preds = %37, %2
  %39 = load ptr, ptr %5, align 8
  %40 = icmp ne ptr %39, null
  br i1 %40, label %41, label %86

41:                                               ; preds = %38
  %42 = load ptr, ptr %5, align 8
  %43 = getelementptr inbounds i8, ptr %42, i64 0
  %44 = load i8, ptr %43, align 1
  %45 = sext i8 %44 to i32
  %46 = icmp eq i32 %45, 91
  br i1 %46, label %47, label %86

47:                                               ; preds = %41
  %48 = load ptr, ptr %4, align 8
  %49 = getelementptr inbounds nuw %struct.evhttp_uri, ptr %48, i32 0, i32 0
  %50 = load i32, ptr %49, align 8
  %51 = and i32 %50, 4
  %52 = icmp ne i32 %51, 0
  br i1 %52, label %53, label %86

53:                                               ; preds = %47
  call void @llvm.lifetime.start.p0(i64 8, ptr %8) #11
  %54 = load i64, ptr %6, align 8
  %55 = sub i64 %54, 2
  store i64 %55, ptr %6, align 8
  %56 = load ptr, ptr %4, align 8
  %57 = getelementptr inbounds nuw %struct.evhttp_uri, ptr %56, i32 0, i32 3
  %58 = load ptr, ptr %57, align 8
  %59 = load i64, ptr %6, align 8
  %60 = add i64 %59, 1
  %61 = call ptr @event_mm_realloc_(ptr noundef %58, i64 noundef %60)
  store ptr %61, ptr %8, align 8
  %62 = load ptr, ptr %8, align 8
  %63 = icmp ne ptr %62, null
  br i1 %63, label %70, label %64

64:                                               ; preds = %53
  %65 = load ptr, ptr %4, align 8
  %66 = getelementptr inbounds nuw %struct.evhttp_uri, ptr %65, i32 0, i32 3
  %67 = load ptr, ptr %66, align 8
  call void @free(ptr noundef %67) #11
  %68 = load ptr, ptr %4, align 8
  %69 = getelementptr inbounds nuw %struct.evhttp_uri, ptr %68, i32 0, i32 3
  store ptr null, ptr %69, align 8
  br label %81

70:                                               ; preds = %53
  %71 = load ptr, ptr %8, align 8
  %72 = load ptr, ptr %5, align 8
  %73 = getelementptr inbounds i8, ptr %72, i64 1
  %74 = load i64, ptr %6, align 8
  call void @llvm.memcpy.p0.p0.i64(ptr align 1 %71, ptr align 1 %73, i64 %74, i1 false)
  %75 = load ptr, ptr %8, align 8
  %76 = load i64, ptr %6, align 8
  %77 = getelementptr inbounds nuw i8, ptr %75, i64 %76
  store i8 0, ptr %77, align 1
  %78 = load ptr, ptr %8, align 8
  %79 = load ptr, ptr %4, align 8
  %80 = getelementptr inbounds nuw %struct.evhttp_uri, ptr %79, i32 0, i32 3
  store ptr %78, ptr %80, align 8
  br label %81

81:                                               ; preds = %70, %64
  %82 = load ptr, ptr %4, align 8
  %83 = getelementptr inbounds nuw %struct.evhttp_uri, ptr %82, i32 0, i32 0
  %84 = load i32, ptr %83, align 8
  %85 = or i32 %84, 2
  store i32 %85, ptr %83, align 8
  call void @llvm.lifetime.end.p0(i64 8, ptr %8) #11
  br label %117

86:                                               ; preds = %47, %41, %38
  br label %87

87:                                               ; preds = %86
  %88 = load ptr, ptr %4, align 8
  %89 = getelementptr inbounds nuw %struct.evhttp_uri, ptr %88, i32 0, i32 3
  %90 = load ptr, ptr %89, align 8
  %91 = icmp ne ptr %90, null
  br i1 %91, label %92, label %96

92:                                               ; preds = %87
  %93 = load ptr, ptr %4, align 8
  %94 = getelementptr inbounds nuw %struct.evhttp_uri, ptr %93, i32 0, i32 3
  %95 = load ptr, ptr %94, align 8
  call void @event_mm_free_(ptr noundef %95)
  br label %96

96:                                               ; preds = %92, %87
  %97 = load ptr, ptr %5, align 8
  %98 = icmp ne ptr %97, null
  br i1 %98, label %99, label %107

99:                                               ; preds = %96
  %100 = load ptr, ptr %5, align 8
  %101 = call ptr @event_mm_strdup_(ptr noundef %100)
  %102 = load ptr, ptr %4, align 8
  %103 = getelementptr inbounds nuw %struct.evhttp_uri, ptr %102, i32 0, i32 3
  store ptr %101, ptr %103, align 8
  %104 = icmp eq ptr %101, null
  br i1 %104, label %105, label %106

105:                                              ; preds = %99
  call void (ptr, ...) @event_warn(ptr noundef @.str.46, ptr noundef @__func__.evhttp_uri_set_host)
  store i32 -1, ptr %3, align 4
  store i32 1, ptr %7, align 4
  br label %118

106:                                              ; preds = %99
  br label %110

107:                                              ; preds = %96
  %108 = load ptr, ptr %4, align 8
  %109 = getelementptr inbounds nuw %struct.evhttp_uri, ptr %108, i32 0, i32 3
  store ptr null, ptr %109, align 8
  br label %110

110:                                              ; preds = %107, %106
  br label %111

111:                                              ; preds = %110
  br label %112

112:                                              ; preds = %111
  %113 = load ptr, ptr %4, align 8
  %114 = getelementptr inbounds nuw %struct.evhttp_uri, ptr %113, i32 0, i32 0
  %115 = load i32, ptr %114, align 8
  %116 = and i32 %115, -3
  store i32 %116, ptr %114, align 8
  br label %117

117:                                              ; preds = %112, %81
  store i32 0, ptr %3, align 4
  store i32 1, ptr %7, align 4
  br label %118

118:                                              ; preds = %117, %105, %35, %26
  call void @llvm.lifetime.end.p0(i64 8, ptr %6) #11
  %119 = load i32, ptr %3, align 4
  ret i32 %119
}