; Function Attrs: nounwind uwtable
define range(i32 -1, 1) i32 @evhttp_uri_set_host(ptr noundef captures(none) %0, ptr noundef %1) local_unnamed_addr #0 {
  %.not = icmp eq ptr %1, null
  br i1 %.not, label %regname_ok.exit.thread49, label %3

3:                                                ; preds = %2
  %4 = tail call i64 @strlen(ptr noundef nonnull dereferenceable(1) %1) #17
  %5 = load i8, ptr %1, align 1
  %6 = icmp eq i8 %5, 91
  %7 = getelementptr inbounds nuw i8, ptr %1, i64 %4
  br i1 %6, label %8, label %10

8:                                                ; preds = %3
  %9 = tail call fastcc i32 @bracket_addr_ok(ptr noundef %1, ptr noundef %7)
  %.not38 = icmp eq i32 %9, 0
  br i1 %.not38, label %regname_ok.exit.thread, label %regname_ok.exit.thread46

10:                                               ; preds = %3
  %.not53 = icmp eq i64 %4, 0
  br i1 %.not53, label %regname_ok.exit.thread49, label %.lr.ph.i

.lr.ph.ithread-pre-split:                         ; preds = %28
  %.pr = load i8, ptr %29, align 1
  br label %.lr.ph.i

.lr.ph.i:                                         ; preds = %10, %.lr.ph.ithread-pre-split
  %11 = phi i8 [ %.pr, %.lr.ph.ithread-pre-split ], [ %5, %10 ]
  %.01015.i = phi ptr [ %29, %.lr.ph.ithread-pre-split ], [ %1, %10 ]
  %12 = zext i8 %11 to i64
  %13 = getelementptr inbounds nuw [256 x i8], ptr @uri_chars, i64 0, i64 %12
  %14 = load i8, ptr %13, align 1
  %.not.i = icmp eq i8 %14, 0
  br i1 %.not.i, label %15, label %28

15:                                               ; preds = %.lr.ph.i
  %memchr.bounds.i = icmp ugt i8 %11, 63
  %16 = shl nuw i64 1, %12
  %17 = and i64 %16, 2882338748320710657
  %memchr.bits.i = icmp eq i64 %17, 0
  %memchr11.not.i = select i1 %memchr.bounds.i, i1 true, i1 %memchr.bits.i
  br i1 %memchr11.not.i, label %18, label %28

18:                                               ; preds = %15
  %19 = icmp eq i8 %11, 37
  br i1 %19, label %20, label %regname_ok.exit.thread

20:                                               ; preds = %18
  %21 = getelementptr inbounds nuw i8, ptr %.01015.i, i64 1
  %22 = load i8, ptr %21, align 1
  %23 = tail call i32 @EVUTIL_ISXDIGIT_(i8 noundef signext %22) #18
  %.not13.i = icmp eq i32 %23, 0
  br i1 %.not13.i, label %regname_ok.exit.thread, label %24

24:                                               ; preds = %20
  %25 = getelementptr inbounds nuw i8, ptr %.01015.i, i64 2
  %26 = load i8, ptr %25, align 1
  %27 = tail call i32 @EVUTIL_ISXDIGIT_(i8 noundef signext %26) #18
  %.not14.i = icmp eq i32 %27, 0
  br i1 %.not14.i, label %regname_ok.exit.thread, label %28

28:                                               ; preds = %24, %15, %.lr.ph.i
  %.sink.i = phi i64 [ 1, %15 ], [ 1, %.lr.ph.i ], [ 3, %24 ]
  %29 = getelementptr inbounds nuw i8, ptr %.01015.i, i64 %.sink.i
  %30 = icmp ult ptr %29, %7
  br i1 %30, label %.lr.ph.ithread-pre-split, label %regname_ok.exit.thread46, !llvm.loop !38

regname_ok.exit.thread46:                         ; preds = %28, %8
  %.pr51 = load i8, ptr %1, align 1
  %31 = icmp eq i8 %.pr51, 91
  br i1 %31, label %32, label %regname_ok.exit.thread49

32:                                               ; preds = %regname_ok.exit.thread46
  %33 = load i32, ptr %0, align 8
  %34 = and i32 %33, 4
  %.not39 = icmp eq i32 %34, 0
  br i1 %.not39, label %regname_ok.exit.thread49, label %35

35:                                               ; preds = %32
  %36 = getelementptr inbounds nuw i8, ptr %0, i64 24
  %37 = load ptr, ptr %36, align 8
  %38 = add i64 %4, -1
  %39 = tail call ptr @event_mm_realloc_(ptr noundef %37, i64 noundef %38) #18
  %.not41 = icmp eq ptr %39, null
  br i1 %.not41, label %40, label %42

40:                                               ; preds = %35
  %41 = load ptr, ptr %36, align 8
  tail call void @free(ptr noundef %41) #18
  br label %46

42:                                               ; preds = %35
  %43 = add i64 %4, -2
  %44 = getelementptr inbounds nuw i8, ptr %1, i64 1
  tail call void @llvm.memcpy.p0.p0.i64(ptr nonnull align 1 %39, ptr nonnull align 1 %44, i64 %43, i1 false)
  %45 = getelementptr inbounds nuw i8, ptr %39, i64 %43
  store i8 0, ptr %45, align 1
  br label %46

46:                                               ; preds = %42, %40
  store ptr %39, ptr %36, align 8
  %47 = load i32, ptr %0, align 8
  %48 = or i32 %47, 2
  br label %61

regname_ok.exit.thread49:                         ; preds = %10, %2, %regname_ok.exit.thread46, %32
  %49 = getelementptr inbounds nuw i8, ptr %0, i64 24
  %50 = load ptr, ptr %49, align 8
  %.not40 = icmp eq ptr %50, null
  br i1 %.not40, label %52, label %51

51:                                               ; preds = %regname_ok.exit.thread49
  tail call void @event_mm_free_(ptr noundef nonnull %50) #18
  br label %52

52:                                               ; preds = %51, %regname_ok.exit.thread49
  br i1 %.not, label %57, label %53

53:                                               ; preds = %52
  %54 = tail call ptr @event_mm_strdup_(ptr noundef nonnull %1) #18
  store ptr %54, ptr %49, align 8
  %55 = icmp eq ptr %54, null
  br i1 %55, label %56, label %58

56:                                               ; preds = %53
  tail call void (ptr, ...) @event_warn(ptr noundef nonnull @.str.46, ptr noundef nonnull @__func__.evhttp_uri_set_host) #18
  br label %regname_ok.exit.thread

57:                                               ; preds = %52
  store ptr null, ptr %49, align 8
  br label %58

58:                                               ; preds = %53, %57
  %59 = load i32, ptr %0, align 8
  %60 = and i32 %59, -3
  br label %61

61:                                               ; preds = %58, %46
  %storemerge = phi i32 [ %60, %58 ], [ %48, %46 ]
  store i32 %storemerge, ptr %0, align 8
  br label %regname_ok.exit.thread

regname_ok.exit.thread:                           ; preds = %24, %20, %18, %8, %61, %56
  %.0 = phi i32 [ 0, %61 ], [ -1, %56 ], [ -1, %8 ], [ -1, %18 ], [ -1, %20 ], [ -1, %24 ]
  ret i32 %.0
}